target datalayout = "e-m:e-p270:32:32-p271:32:32-p272:64:64-i64:64-i128:128-f80:128-n8:16:32:64-S128"
target triple = "x86_64-pc-linux-gnu"

%struct._generic_ARKInterp = type { ptr, ptr }
%struct._ARKInterpContent_Hermite = type { i32, ptr, ptr, ptr, ptr, double, double, double }
%struct.ARKodeMemRec = type { ptr, double, ptr, i32, i32, double, double, ptr, i32, double, ptr, i32, i32, ptr, ptr, i32, ptr, ptr, i32, ptr, ptr, ptr, ptr, ptr, ptr, ptr, ptr, ptr, ptr, ptr, ptr, ptr, ptr, ptr, i32, ptr, ptr, i32, ptr, i32, ptr, ptr, ptr, ptr, ptr, ptr, ptr, ptr, ptr, ptr, ptr, ptr, ptr, ptr, ptr, ptr, ptr, ptr, ptr, ptr, ptr, ptr, ptr, ptr, ptr, ptr, i32, ptr, ptr, ptr, ptr, ptr, ptr, ptr, i32, ptr, ptr, ptr, i32, ptr, ptr, ptr, ptr, ptr, ptr, ptr, i32, i32, i32, i32, double, double, double, double, double, double, double, double, double, double, i32, ptr, i64, i32, i32, i32, i32, i64, i64, i32, i64, i64, i64, i64, i64, i64, i64, double, double, double, double, double, i32, double, double, i32, i32, i32, i32, i32, i32, i32, i32, ptr, i32, ptr, ptr, ptr, ptr, i32, i32, i32 }

; Function Attrs: nounwind uwtable
define i32 @arkInterpUpdate_Hermite(ptr noundef %0, ptr noundef %1, double noundef %2) #0 {
  %4 = alloca i32, align 4
  %5 = alloca ptr, align 8
  %6 = alloca ptr, align 8
  %7 = alloca double, align 8
  %8 = alloca i32, align 4
  %9 = alloca i32, align 4
  store ptr %0, ptr %5, align 8, !tbaa !3
  store ptr %1, ptr %6, align 8, !tbaa !8
  store double %2, ptr %7, align 8, !tbaa !27
  call void @llvm.lifetime.start.p0(i64 4, ptr %8) #7
  %10 = load ptr, ptr %5, align 8, !tbaa !3
  %11 = getelementptr inbounds nuw %struct.ARKodeMemRec, ptr %10, i32 0, i32 78
  %12 = load i32, ptr %11, align 8, !tbaa !55
  %13 = icmp ne i32 %12, 0
  br i1 %13, label %35, label %14

14:                                               ; preds = %3
  %15 = load ptr, ptr %5, align 8, !tbaa !3
  %16 = getelementptr inbounds nuw %struct.ARKodeMemRec, ptr %15, i32 0, i32 21
  %17 = load ptr, ptr %16, align 8, !tbaa !56
  %18 = load ptr, ptr %5, align 8, !tbaa !3
  %19 = load ptr, ptr %5, align 8, !tbaa !3
  %20 = getelementptr inbounds nuw %struct.ARKodeMemRec, ptr %19, i32 0, i32 118
  %21 = load double, ptr %20, align 8, !tbaa !57
  %22 = load ptr, ptr %5, align 8, !tbaa !3
  %23 = getelementptr inbounds nuw %struct.ARKodeMemRec, ptr %22, i32 0, i32 76
  %24 = load ptr, ptr %23, align 8, !tbaa !53
  %25 = load ptr, ptr %5, align 8, !tbaa !3
  %26 = getelementptr inbounds nuw %struct.ARKodeMemRec, ptr %25, i32 0, i32 77
  %27 = load ptr, ptr %26, align 8, !tbaa !58
  %28 = call i32 %17(ptr noundef %18, double noundef %21, ptr noundef %24, ptr noundef %27, i32 noundef 0)
  store i32 %28, ptr %8, align 4, !tbaa !24
  %29 = load i32, ptr %8, align 4, !tbaa !24
  %30 = icmp ne i32 %29, 0
  br i1 %30, label %31, label %32

31:                                               ; preds = %14
  store i32 -8, ptr %4, align 4
  store i32 1, ptr %9, align 4
  br label %73

32:                                               ; preds = %14
  %33 = load ptr, ptr %5, align 8, !tbaa !3
  %34 = getelementptr inbounds nuw %struct.ARKodeMemRec, ptr %33, i32 0, i32 78
  store i32 1, ptr %34, align 8, !tbaa !55
  br label %35

35:                                               ; preds = %32, %3
  %36 = load ptr, ptr %5, align 8, !tbaa !3
  %37 = getelementptr inbounds nuw %struct.ARKodeMemRec, ptr %36, i32 0, i32 76
  %38 = load ptr, ptr %37, align 8, !tbaa !53
  %39 = load ptr, ptr %6, align 8, !tbaa !8
  %40 = getelementptr inbounds nuw %struct._generic_ARKInterp, ptr %39, i32 0, i32 0
  %41 = load ptr, ptr %40, align 8, !tbaa !35
  %42 = getelementptr inbounds nuw %struct._ARKInterpContent_Hermite, ptr %41, i32 0, i32 2
  %43 = load ptr, ptr %42, align 8, !tbaa !38
  call void @N_VScale(double noundef 1.000000e+00, ptr noundef %38, ptr noundef %43)
  %44 = load ptr, ptr %5, align 8, !tbaa !3
  %45 = getelementptr inbounds nuw %struct.ARKodeMemRec, ptr %44, i32 0, i32 77
  %46 = load ptr, ptr %45, align 8, !tbaa !58
  %47 = load ptr, ptr %6, align 8, !tbaa !8
  %48 = getelementptr inbounds nuw %struct._generic_ARKInterp, ptr %47, i32 0, i32 0
  %49 = load ptr, ptr %48, align 8, !tbaa !35
  %50 = getelementptr inbounds nuw %struct._ARKInterpContent_Hermite, ptr %49, i32 0, i32 1
  %51 = load ptr, ptr %50, align 8, !tbaa !36
  call void @N_VScale(double noundef 1.000000e+00, ptr noundef %46, ptr noundef %51)
  %52 = load ptr, ptr %6, align 8, !tbaa !8
  %53 = getelementptr inbounds nuw %struct._generic_ARKInterp, ptr %52, i32 0, i32 0
  %54 = load ptr, ptr %53, align 8, !tbaa !35
  %55 = getelementptr inbounds nuw %struct._ARKInterpContent_Hermite, ptr %54, i32 0, i32 6
  %56 = load double, ptr %55, align 8, !tbaa !51
  %57 = load ptr, ptr %6, align 8, !tbaa !8
  %58 = getelementptr inbounds nuw %struct._generic_ARKInterp, ptr %57, i32 0, i32 0
  %59 = load ptr, ptr %58, align 8, !tbaa !35
  %60 = getelementptr inbounds nuw %struct._ARKInterpContent_Hermite, ptr %59, i32 0, i32 5
  store double %56, ptr %60, align 8, !tbaa !50
  %61 = load double, ptr %7, align 8, !tbaa !27
  %62 = load ptr, ptr %6, align 8, !tbaa !8
  %63 = getelementptr inbounds nuw %struct._generic_ARKInterp, ptr %62, i32 0, i32 0
  %64 = load ptr, ptr %63, align 8, !tbaa !35
  %65 = getelementptr inbounds nuw %struct._ARKInterpContent_Hermite, ptr %64, i32 0, i32 6
  store double %61, ptr %65, align 8, !tbaa !51
  %66 = load ptr, ptr %5, align 8, !tbaa !3
  %67 = getelementptr inbounds nuw %struct.ARKodeMemRec, ptr %66, i32 0, i32 92
  %68 = load double, ptr %67, align 8, !tbaa !59
  %69 = load ptr, ptr %6, align 8, !tbaa !8
  %70 = getelementptr inbounds nuw %struct._generic_ARKInterp, ptr %69, i32 0, i32 0
  %71 = load ptr, ptr %70, align 8, !tbaa !35
  %72 = getelementptr inbounds nuw %struct._ARKInterpContent_Hermite, ptr %71, i32 0, i32 7
  store double %68, ptr %72, align 8, !tbaa !52
  store i32 0, ptr %4, align 4
  store i32 1, ptr %9, align 4
  br label %73

73:                                               ; preds = %35, %31
  call void @llvm.lifetime.end.p0(i64 4, ptr %8) #7
  %74 = load i32, ptr %4, align 4
  ret i32 %74
}