; Function Attrs: nounwind uwtable
define range(i32 -8, 1) i32 @arkInterpUpdate_Hermite(ptr noundef %0, ptr noundef readonly captures(none) %1, double noundef %2) #0 {
  %4 = getelementptr inbounds nuw i8, ptr %0, i64 608
  %5 = load i32, ptr %4, align 8, !tbaa !42
  %.not = icmp eq i32 %5, 0
  br i1 %.not, label %6, label %17

6:                                                ; preds = %3
  %7 = getelementptr inbounds nuw i8, ptr %0, i64 152
  %8 = load ptr, ptr %7, align 8, !tbaa !43
  %9 = getelementptr inbounds nuw i8, ptr %0, i64 896
  %10 = load double, ptr %9, align 8, !tbaa !44
  %11 = getelementptr inbounds nuw i8, ptr %0, i64 592
  %12 = load ptr, ptr %11, align 8, !tbaa !40
  %13 = getelementptr inbounds nuw i8, ptr %0, i64 600
  %14 = load ptr, ptr %13, align 8, !tbaa !45
  %15 = tail call i32 %8(ptr noundef nonnull %0, double noundef %10, ptr noundef %12, ptr noundef %14, i32 noundef 0) #14
  %.not18 = icmp eq i32 %15, 0
  br i1 %.not18, label %16, label %35

16:                                               ; preds = %6
  store i32 1, ptr %4, align 8, !tbaa !42
  br label %17

17:                                               ; preds = %16, %3
  %18 = getelementptr inbounds nuw i8, ptr %0, i64 592
  %19 = load ptr, ptr %18, align 8, !tbaa !40
  %20 = load ptr, ptr %1, align 8, !tbaa !17
  %21 = getelementptr inbounds nuw i8, ptr %20, i64 16
  %22 = load ptr, ptr %21, align 8, !tbaa !37
  tail call void @N_VScale(double noundef 1.000000e+00, ptr noundef %19, ptr noundef %22) #14
  %23 = getelementptr inbounds nuw i8, ptr %0, i64 600
  %24 = load ptr, ptr %23, align 8, !tbaa !45
  %25 = load ptr, ptr %1, align 8, !tbaa !17
  %26 = getelementptr inbounds nuw i8, ptr %25, i64 8
  %27 = load ptr, ptr %26, align 8, !tbaa !36
  tail call void @N_VScale(double noundef 1.000000e+00, ptr noundef %24, ptr noundef %27) #14
  %28 = load ptr, ptr %1, align 8, !tbaa !17
  %29 = getelementptr inbounds nuw i8, ptr %28, i64 48
  %30 = load double, ptr %29, align 8, !tbaa !34
  %31 = getelementptr inbounds nuw i8, ptr %28, i64 40
  store double %30, ptr %31, align 8, !tbaa !33
  store double %2, ptr %29, align 8, !tbaa !34
  %32 = getelementptr inbounds nuw i8, ptr %0, i64 704
  %33 = load double, ptr %32, align 8, !tbaa !46
  %34 = getelementptr inbounds nuw i8, ptr %28, i64 56
  store double %33, ptr %34, align 8, !tbaa !35
  br label %35

35:                                               ; preds = %6, %17
  %.0 = phi i32 [ 0, %17 ], [ -8, %6 ]
  ret i32 %.0
}